; Function Attrs: mustprogress uwtable
define void @_ZN2cv4gapi9NV12toRGBERKNS_4GMatES3_(ptr dead_on_unwind noalias writable sret(%"class.cv::GMat") align 8 %0, ptr nocapture noundef nonnull readonly align 8 dereferenceable(16) %1, ptr nocapture noundef nonnull readonly align 8 dereferenceable(16) %2) local_unnamed_addr #3 personality ptr @__gxx_personality_v0 {
  %4 = alloca %"class.cv::GMat", align 8
  %5 = alloca %"class.cv::GMat", align 8
  %6 = load ptr, ptr %1, align 8
  store ptr %6, ptr %4, align 8
  %7 = getelementptr inbounds i8, ptr %4, i64 8
  %8 = getelementptr inbounds i8, ptr %1, i64 8
  %9 = load ptr, ptr %8, align 8
  store ptr %9, ptr %7, align 8
  %.not.i.i.i.i = icmp eq ptr %9, null
  br i1 %.not.i.i.i.i, label %_ZN2cv4GMatC2ERKS0_.exit, label %10

10:                                               ; preds = %3
  %11 = getelementptr inbounds i8, ptr %9, i64 8
  %12 = load i8, ptr @__libc_single_threaded, align 1
  %.not.i.i.i.i.i = icmp eq i8 %12, 0
  br i1 %.not.i.i.i.i.i, label %16, label %13

13:                                               ; preds = %10
  %14 = load i32, ptr %11, align 4
  %15 = add nsw i32 %14, 1
  store i32 %15, ptr %11, align 4
  br label %_ZN2cv4GMatC2ERKS0_.exit

16:                                               ; preds = %10
  %17 = atomicrmw volatile add ptr %11, i32 1 acq_rel, align 4
  br label %_ZN2cv4GMatC2ERKS0_.exit

_ZN2cv4GMatC2ERKS0_.exit:                         ; preds = %3, %13, %16
  %18 = load ptr, ptr %2, align 8
  store ptr %18, ptr %5, align 8
  %19 = getelementptr inbounds i8, ptr %5, i64 8
  %20 = getelementptr inbounds i8, ptr %2, i64 8
  %21 = load ptr, ptr %20, align 8
  store ptr %21, ptr %19, align 8
  %.not.i.i.i.i3 = icmp eq ptr %21, null
  br i1 %.not.i.i.i.i3, label %_ZN2cv4GMatC2ERKS0_.exit5, label %22

22:                                               ; preds = %_ZN2cv4GMatC2ERKS0_.exit
  %23 = getelementptr inbounds i8, ptr %21, i64 8
  %24 = load i8, ptr @__libc_single_threaded, align 1
  %.not.i.i.i.i.i4 = icmp eq i8 %24, 0
  br i1 %.not.i.i.i.i.i4, label %28, label %25

25:                                               ; preds = %22
  %26 = load i32, ptr %23, align 4
  %27 = add nsw i32 %26, 1
  store i32 %27, ptr %23, align 4
  br label %_ZN2cv4GMatC2ERKS0_.exit5

28:                                               ; preds = %22
  %29 = atomicrmw volatile add ptr %23, i32 1 acq_rel, align 4
  br label %_ZN2cv4GMatC2ERKS0_.exit5

_ZN2cv4GMatC2ERKS0_.exit5:                        ; preds = %_ZN2cv4GMatC2ERKS0_.exit, %25, %28
  invoke void @_ZN2cv11GKernelTypeINS_4gapi7imgproc10GNV12toRGBESt8functionIFNS_4GMatES5_S5_EEE2onES5_S5_(ptr dead_on_unwind writable sret(%"class.cv::GMat") align 8 %0, ptr noundef nonnull %4, ptr noundef nonnull %5)
          to label %30 unwind label %101

30:                                               ; preds = %_ZN2cv4GMatC2ERKS0_.exit5
  %31 = load ptr, ptr %19, align 8
  %.not.i.i.i.i6 = icmp eq ptr %31, null
  br i1 %.not.i.i.i.i6, label %_ZN2cv4GMatD2Ev.exit, label %32

32:                                               ; preds = %30
  %33 = getelementptr inbounds i8, ptr %31, i64 8
  %34 = load atomic i64, ptr %33 acquire, align 8
  %35 = icmp eq i64 %34, 4294967297
  %36 = trunc i64 %34 to i32
  br i1 %35, label %37, label %42

37:                                               ; preds = %32
  store i32 0, ptr %33, align 8
  %38 = getelementptr inbounds i8, ptr %31, i64 12
  store i32 0, ptr %38, align 4
  %39 = load ptr, ptr %31, align 8
  %40 = getelementptr inbounds i8, ptr %39, i64 16
  %41 = load ptr, ptr %40, align 8
  call void %41(ptr noundef nonnull align 8 dereferenceable(16) %31) #18
  br label %_ZNSt16_Sp_counted_baseILN9__gnu_cxx12_Lock_policyE2EE24_M_release_last_use_coldEv.exit.sink.split.i.i.i.i.i

42:                                               ; preds = %32
  %43 = load i8, ptr @__libc_single_threaded, align 1
  %.not.i.i.i.i.i7 = icmp eq i8 %43, 0
  br i1 %.not.i.i.i.i.i7, label %46, label %44

44:                                               ; preds = %42
  %45 = add nsw i32 %36, -1
  store i32 %45, ptr %33, align 4
  br label %48

46:                                               ; preds = %42
  %47 = atomicrmw volatile add ptr %33, i32 -1 acq_rel, align 4
  br label %48

48:                                               ; preds = %46, %44
  %.0.i.i.i.i.i = phi i32 [ %36, %44 ], [ %47, %46 ]
  %49 = icmp eq i32 %.0.i.i.i.i.i, 1
  br i1 %49, label %50, label %_ZN2cv4GMatD2Ev.exit

50:                                               ; preds = %48
  %51 = load ptr, ptr %31, align 8
  %52 = getelementptr inbounds i8, ptr %51, i64 16
  %53 = load ptr, ptr %52, align 8
  call void %53(ptr noundef nonnull align 8 dereferenceable(16) %31) #18
  %54 = getelementptr inbounds i8, ptr %31, i64 12
  %55 = load i8, ptr @__libc_single_threaded, align 1
  %.not.i.i.i.i.i.i.i = icmp eq i8 %55, 0
  br i1 %.not.i.i.i.i.i.i.i, label %59, label %56

56:                                               ; preds = %50
  %57 = load i32, ptr %54, align 4
  %58 = add nsw i32 %57, -1
  store i32 %58, ptr %54, align 4
  br label %61

59:                                               ; preds = %50
  %60 = atomicrmw volatile add ptr %54, i32 -1 acq_rel, align 4
  br label %61

61:                                               ; preds = %59, %56
  %.0.i.i.i.i.i.i.i = phi i32 [ %57, %56 ], [ %60, %59 ]
  %62 = icmp eq i32 %.0.i.i.i.i.i.i.i, 1
  br i1 %62, label %_ZNSt16_Sp_counted_baseILN9__gnu_cxx12_Lock_policyE2EE24_M_release_last_use_coldEv.exit.sink.split.i.i.i.i.i, label %_ZN2cv4GMatD2Ev.exit

_ZNSt16_Sp_counted_baseILN9__gnu_cxx12_Lock_policyE2EE24_M_release_last_use_coldEv.exit.sink.split.i.i.i.i.i: ; preds = %61, %37
  %63 = load ptr, ptr %31, align 8
  %64 = getelementptr inbounds i8, ptr %63, i64 24
  %65 = load ptr, ptr %64, align 8
  call void %65(ptr noundef nonnull align 8 dereferenceable(16) %31) #18
  br label %_ZN2cv4GMatD2Ev.exit

_ZN2cv4GMatD2Ev.exit:                             ; preds = %30, %48, %61, %_ZNSt16_Sp_counted_baseILN9__gnu_cxx12_Lock_policyE2EE24_M_release_last_use_coldEv.exit.sink.split.i.i.i.i.i
  %66 = load ptr, ptr %7, align 8
  %.not.i.i.i.i8 = icmp eq ptr %66, null
  br i1 %.not.i.i.i.i8, label %_ZN2cv4GMatD2Ev.exit14, label %67

67:                                               ; preds = %_ZN2cv4GMatD2Ev.exit
  %68 = getelementptr inbounds i8, ptr %66, i64 8
  %69 = load atomic i64, ptr %68 acquire, align 8
  %70 = icmp eq i64 %69, 4294967297
  %71 = trunc i64 %69 to i32
  br i1 %70, label %72, label %77

72:                                               ; preds = %67
  store i32 0, ptr %68, align 8
  %73 = getelementptr inbounds i8, ptr %66, i64 12
  store i32 0, ptr %73, align 4
  %74 = load ptr, ptr %66, align 8
  %75 = getelementptr inbounds i8, ptr %74, i64 16
  %76 = load ptr, ptr %75, align 8
  call void %76(ptr noundef nonnull align 8 dereferenceable(16) %66) #18
  br label %_ZNSt16_Sp_counted_baseILN9__gnu_cxx12_Lock_policyE2EE24_M_release_last_use_coldEv.exit.sink.split.i.i.i.i.i13

77:                                               ; preds = %67
  %78 = load i8, ptr @__libc_single_threaded, align 1
  %.not.i.i.i.i.i9 = icmp eq i8 %78, 0
  br i1 %.not.i.i.i.i.i9, label %81, label %79

79:                                               ; preds = %77
  %80 = add nsw i32 %71, -1
  store i32 %80, ptr %68, align 4
  br label %83

81:                                               ; preds = %77
  %82 = atomicrmw volatile add ptr %68, i32 -1 acq_rel, align 4
  br label %83

83:                                               ; preds = %81, %79
  %.0.i.i.i.i.i10 = phi i32 [ %71, %79 ], [ %82, %81 ]
  %84 = icmp eq i32 %.0.i.i.i.i.i10, 1
  br i1 %84, label %85, label %_ZN2cv4GMatD2Ev.exit14

85:                                               ; preds = %83
  %86 = load ptr, ptr %66, align 8
  %87 = getelementptr inbounds i8, ptr %86, i64 16
  %88 = load ptr, ptr %87, align 8
  call void %88(ptr noundef nonnull align 8 dereferenceable(16) %66) #18
  %89 = getelementptr inbounds i8, ptr %66, i64 12
  %90 = load i8, ptr @__libc_single_threaded, align 1
  %.not.i.i.i.i.i.i.i11 = icmp eq i8 %90, 0
  br i1 %.not.i.i.i.i.i.i.i11, label %94, label %91

91:                                               ; preds = %85
  %92 = load i32, ptr %89, align 4
  %93 = add nsw i32 %92, -1
  store i32 %93, ptr %89, align 4
  br label %96

94:                                               ; preds = %85
  %95 = atomicrmw volatile add ptr %89, i32 -1 acq_rel, align 4
  br label %96

96:                                               ; preds = %94, %91
  %.0.i.i.i.i.i.i.i12 = phi i32 [ %92, %91 ], [ %95, %94 ]
  %97 = icmp eq i32 %.0.i.i.i.i.i.i.i12, 1
  br i1 %97, label %_ZNSt16_Sp_counted_baseILN9__gnu_cxx12_Lock_policyE2EE24_M_release_last_use_coldEv.exit.sink.split.i.i.i.i.i13, label %_ZN2cv4GMatD2Ev.exit14

_ZNSt16_Sp_counted_baseILN9__gnu_cxx12_Lock_policyE2EE24_M_release_last_use_coldEv.exit.sink.split.i.i.i.i.i13: ; preds = %96, %72
  %98 = load ptr, ptr %66, align 8
  %99 = getelementptr inbounds i8, ptr %98, i64 24
  %100 = load ptr, ptr %99, align 8
  call void %100(ptr noundef nonnull align 8 dereferenceable(16) %66) #18
  br label %_ZN2cv4GMatD2Ev.exit14

_ZN2cv4GMatD2Ev.exit14:                           ; preds = %_ZN2cv4GMatD2Ev.exit, %83, %96, %_ZNSt16_Sp_counted_baseILN9__gnu_cxx12_Lock_policyE2EE24_M_release_last_use_coldEv.exit.sink.split.i.i.i.i.i13
  ret void

101:                                              ; preds = %_ZN2cv4GMatC2ERKS0_.exit5
  %102 = landingpad { ptr, i32 }
          cleanup
  call void @_ZN2cv4GMatD2Ev(ptr noundef nonnull align 8 dereferenceable(16) %5) #18
  call void @_ZN2cv4GMatD2Ev(ptr noundef nonnull align 8 dereferenceable(16) %4) #18
  resume { ptr, i32 } %102
}